CCS PCM C Compiler, Version 3.185, 22500

               Filename: C:\Users\Fukaken\Desktop\個人フォルダ\R12シリーズ\福田\サーボ\sa-bo.LST

               ROM used: 131 (2%)
                         Largest free fragment is 2048
               RAM used: 10 (6%) at main() level
                         11 (6%) worst case
               Stack:    1 locations

*
0000:  MOVLW  00
0001:  MOVWF  0A
0002:  GOTO   022
0003:  NOP
....................  #include <16F877A.h> 
....................  //////// Standard Header file for the PIC16F877A device ////////////////  
.................... #device PIC16F877A ADC=10  
.................... #list  
....................  
.................... #fuses HS,NOWDT,NOPUT,NOPROTECT,NOBROWNOUT,NOLVP  
.................... #use delay(CLOCK=20000000)  
0004:  MOVLW  25
0005:  MOVWF  04
0006:  MOVF   00,W
0007:  BTFSC  03.2
0008:  GOTO   016
0009:  MOVLW  06
000A:  MOVWF  78
000B:  CLRF   77
000C:  DECFSZ 77,F
000D:  GOTO   00C
000E:  DECFSZ 78,F
000F:  GOTO   00B
0010:  MOVLW  7B
0011:  MOVWF  77
0012:  DECFSZ 77,F
0013:  GOTO   012
0014:  DECFSZ 00,F
0015:  GOTO   009
0016:  RETLW  00
0017:  MOVLW  26
0018:  MOVWF  04
0019:  MOVF   00,W
001A:  BTFSC  03.2
001B:  GOTO   021
001C:  GOTO   01F
001D:  NOP
001E:  NOP
001F:  DECFSZ 00,F
0020:  GOTO   01D
0021:  RETLW  00
....................   
.................... #byte port_a=5  
.................... #byte port_b=6  
.................... #byte port_c=7  
.................... #byte port_d=8  
.................... #byte port_e=9  
.................... #use fast_io(a)  
.................... #use fast_io(b)  
.................... #use fast_io(c)  
.................... #use fast_io(d)  
.................... #use fast_io(e)  
....................   
.................... int main()  
.................... {  
0022:  CLRF   04
0023:  MOVLW  1F
0024:  ANDWF  03,F
0025:  MOVLW  06
0026:  BSF    03.5
0027:  MOVWF  1F
0028:  MOVLW  07
0029:  BCF    03.5
002A:  MOVWF  1F
.................... 	  
.................... 	unsigned long int a=0;  
002B:  CLRF   21
002C:  CLRF   22
.................... 	int  i=0;  
002D:  CLRF   23
.................... 	unsigned int k=0;  
002E:  CLRF   24
.................... 	set_tris_a(0);  
002F:  MOVLW  00
0030:  BSF    03.5
0031:  MOVWF  05
.................... 	set_tris_b(0x00);  
0032:  MOVWF  06
.................... 	set_tris_c(0);  
0033:  MOVWF  07
.................... 	set_tris_d(0);  
0034:  MOVWF  08
.................... 	set_tris_e(0);  
0035:  BCF    09.0
0036:  BCF    09.1
0037:  BCF    09.2
.................... 	  
.................... 	  
.................... 	port_a = 0;  
0038:  BCF    03.5
0039:  CLRF   05
.................... 	port_b = 0;  
003A:  CLRF   06
.................... 	port_c = 0;  
003B:  CLRF   07
.................... 	port_d = 0;  
003C:  CLRF   08
.................... 	port_e = 0;  
003D:  CLRF   09
.................... 	  
.................... 	  
.................... #define	hennsuu		2000  
.................... 	a=5;  
003E:  CLRF   22
003F:  MOVLW  05
0040:  MOVWF  21
.................... 	while(1)  
.................... 	{  
.................... 		  
.................... 		  
.................... 		  
.................... 		output_high(PIN_C0);  
0041:  BSF    07.0
.................... 		  
.................... 		for( i=0;i<=50;i++)  
0042:  CLRF   23
0043:  MOVF   23,W
0044:  SUBLW  32
0045:  BTFSS  03.0
0046:  GOTO   058
.................... 		{  
.................... 		output_high(PIN_B5);  
0047:  BSF    06.5
.................... 		delay_us(1500);  
0048:  MOVLW  01
0049:  MOVWF  25
004A:  CALL   004
004B:  MOVLW  02
004C:  MOVWF  25
004D:  MOVLW  F7
004E:  MOVWF  26
004F:  CALL   017
0050:  DECFSZ 25,F
0051:  GOTO   04D
.................... 		output_low(PIN_B5);  
0052:  BCF    06.5
.................... 		delay_ms(18);  
0053:  MOVLW  12
0054:  MOVWF  25
0055:  CALL   004
.................... 		}                                                                                   
0056:  INCF   23,F
0057:  GOTO   043
.................... 		  
.................... 		  
.................... 		for( i=0;i<=50;i++)  
0058:  CLRF   23
0059:  MOVF   23,W
005A:  SUBLW  32
005B:  BTFSS  03.0
005C:  GOTO   06B
.................... 		{  
.................... 		output_high(PIN_B5);  
005D:  BSF    06.5
.................... 		delay_us(900);  
005E:  MOVLW  04
005F:  MOVWF  25
0060:  MOVLW  DE
0061:  MOVWF  26
0062:  CALL   017
0063:  DECFSZ 25,F
0064:  GOTO   060
.................... 		output_low(PIN_B5);  
0065:  BCF    06.5
.................... 		delay_ms(19);  
0066:  MOVLW  13
0067:  MOVWF  25
0068:  CALL   004
.................... 		}        
0069:  INCF   23,F
006A:  GOTO   059
.................... 		  
.................... 		  
.................... 		for( i=0;i<=50;i++)  
006B:  CLRF   23
006C:  MOVF   23,W
006D:  SUBLW  32
006E:  BTFSS  03.0
006F:  GOTO   081
.................... 		{  
.................... 		output_high(PIN_B5);  
0070:  BSF    06.5
.................... 		delay_us(1800);  
0071:  MOVLW  01
0072:  MOVWF  25
0073:  CALL   004
0074:  MOVLW  04
0075:  MOVWF  25
0076:  MOVLW  C5
0077:  MOVWF  26
0078:  CALL   017
0079:  DECFSZ 25,F
007A:  GOTO   076
.................... 		output_low(PIN_B5);  
007B:  BCF    06.5
.................... 		delay_ms(18);  
007C:  MOVLW  12
007D:  MOVWF  25
007E:  CALL   004
.................... 		}        
007F:  INCF   23,F
0080:  GOTO   06C
.................... 		/*  
.................... 		a=4;  
.................... 		  
.................... 		output_low(PIN_C0);  
.................... 		  
.................... 		for( i=0;i<=50;i++)  
.................... 		{  
.................... 		output_high(PIN_B5);  
.................... 		delay_ms(a);  
.................... 		output_low(PIN_B5);  
.................... 		delay_ms(hennsuu-a);  
.................... 		}  
.................... 		  
.................... 		output_high(PIN_C0);  
.................... 		a=7;  
.................... 		  
.................... 		for( i=0;i<=50;i++)  
.................... 		{  
.................... 		output_high(PIN_B5);  
.................... 		delay_ms(a);  
.................... 		output_low(PIN_B5);  
.................... 		delay_ms(hennsuu-a);  
.................... 		}  
.................... 		  
.................... 		  
.................... 		output_low(PIN_C0);  
.................... 		a=12;  
.................... 		  
.................... 		for( i=0;i<=50;i++)  
.................... 		{  
.................... 		output_high(PIN_B5);  
.................... 		delay_ms(a);  
.................... 		output_low(PIN_B5);  
.................... 		delay_ms(hennsuu-a);  
.................... 		}  
.................... 		  
.................... 		if(a==12)  
.................... 		{  
.................... 			a=0;  
.................... 		}  
.................... 		*/  
.................... 		  
.................... 	}  
0081:  GOTO   041
.................... 	  
.................... }  
....................   
.................... 		 
0082:  SLEEP

Configuration Fuses:
   Word  1: 3F3A   HS NOWDT NOPUT NODEBUG NOPROTECT NOBROWNOUT NOLVP NOCPD NOWRT
