CCS PCM C Compiler, Version 3.185, 22500

               Filename: C:\Users\FMV\Dropbox\FUKAKEN\回路\software\TPIP通信 0520_カッパ動作確認\TPIP.LST

               ROM used: 309 (4%)
                         Largest free fragment is 2048
               RAM used: 56 (32%) at main() level
                         57 (33%) worst case
               Stack:    1 locations

*
0000:  MOVLW  00
0001:  MOVWF  0A
0002:  GOTO   017
0003:  NOP
....................    
.................... #include<16f877a.h> 
....................  //////// Standard Header file for the PIC16F877A device ////////////////  
.................... #device PIC16F877A  
.................... #list  
....................  
.................... //#include<stdio.h>  
....................   
.................... //#define RS_BAUD		115200  
.................... #define RS_BAUD		9600  
.................... #define RS_TX		PIN_C6  
.................... #define RS_RX		PIN_C7  
.................... #define RUN_LED		PIN_C0  
.................... //ぴんマクロ  
.................... /*  
.................... //鉄火巻きモーターI/O  
.................... 	#define	TEKKA_Mortor1_IO_R	PIN_A2  
.................... 	#define	TEKKA_Mortor1_IO_L	PIN_A4  
.................... 	#define	TEKKA_LED			PIN_E1  
.................... 	#define	TEKKA_NOPIN			PIN_E0  
.................... 	#define	TEKKA_Mortor2_IO_R	PIN_A3  
.................... 	#define	TEKKA_Mortor2_IO_L	PIN_A5  
.................... 	*/  
.................... 	//モーターPWM  
.................... 	#define	TEKKA_Mortor1_PWM	PIN_C1  
.................... 	#define	TEKKA_Mortor2_PWM	PIN_C2  
.................... 	//かっぱ巻きモーターI/O  
.................... 	#define	KAPPA_LED1			PIN_D5	  
.................... 	#define	KAPPA_LED2			PIN_D4	  
.................... 	#define	KAPPA_Mortor1_IO_R	PIN_D0	  
.................... 	#define	KAPPA_Mortor1_IO_L	PIN_C3  
.................... 	#define	KAPPA_Mortor2_IO_R	PIN_D2	  
.................... 	#define	KAPPA_Mortor2_IO_L	PIN_D3	  
.................... 	#define	KAPPA_Mortor3_IO_R	PIN_C4	  
.................... 	#define	KAPPA_Mortor3_IO_L	PIN_C5	  
.................... 	#define	KAPPA_Mortor4_IO_R	PIN_D1	  
.................... 	#define	KAPPA_Mortor4_IO_L	PIN_A0	  
.................... 	//かっぱ巻きモーター2I/O  
.................... 	#define	KAPPA2_LED1			PIN_B6	  
.................... 	#define	KAPPA2_LED2			PIN_B7	  
.................... 	#define	KAPPA2_Mortor1_IO_R	PIN_D6  
.................... 	#define	KAPPA2_Mortor1_IO_L	PIN_D7  
.................... 	#define	KAPPA2_Mortor2_IO_R	PIN_B0	  
.................... 	#define	KAPPA2_Mortor2_IO_L	PIN_B1	  
.................... 	#define	KAPPA2_Mortor3_IO_R	PIN_B2	  
.................... 	#define	KAPPA2_Mortor3_IO_L	PIN_B3	  
.................... 	#define	KAPPA2_Mortor4_IO_R	PIN_B4	  
.................... 	#define	KAPPA2_Mortor4_IO_L	PIN_B5	  
....................   
....................   
.................... #use delay(clock = 20000000)  
0004:  MOVLW  53
0005:  MOVWF  04
0006:  MOVF   00,W
0007:  BTFSC  03.2
0008:  GOTO   016
0009:  MOVLW  06
000A:  MOVWF  78
000B:  CLRF   77
000C:  DECFSZ 77,F
000D:  GOTO   00C
000E:  DECFSZ 78,F
000F:  GOTO   00B
0010:  MOVLW  7B
0011:  MOVWF  77
0012:  DECFSZ 77,F
0013:  GOTO   012
0014:  DECFSZ 00,F
0015:  GOTO   009
0016:  RETLW  00
.................... #fuses HS,NOWDT,NOPROTECT,NOLVP,PUT,NOBROWNOUT  
.................... #use rs232(BAUD = RS_BAUD , XMIT = RS_TX, RCV = RS_RX)  //rs232c設定  
.................... /*  
.................... #use fast_io(a)  
.................... #use fast_io(b)  
.................... #use fast_io(c)  
.................... #use fast_io(d)  
.................... #use fast_io(e)  
.................... */  
.................... #byte port_a = 5  
.................... #byte port_b = 6  
.................... #byte port_c = 7  
.................... #byte port_d = 8  
.................... #byte port_e = 9  
.................... #byte ADCON1 = 0x9F			//アナログデジタルピン設定	  
.................... main()  
.................... {  
0017:  CLRF   04
0018:  MOVLW  1F
0019:  ANDWF  03,F
001A:  MOVLW  06
001B:  BSF    03.5
001C:  MOVWF  1F
001D:  MOVLW  07
001E:  BCF    03.5
001F:  MOVWF  1F
0020:  MOVLW  81
0021:  BSF    03.5
0022:  MOVWF  19
0023:  MOVLW  26
0024:  MOVWF  18
0025:  MOVLW  90
0026:  BCF    03.5
0027:  MOVWF  18
.................... 	//ローカル変数定義  
.................... 	char cheaker=0;	  
*
002A:  CLRF   21
.................... 	int data_H[20];  
.................... 	int data_L[20];		//受信データ格納スペース  
.................... 	int16 E=0,F=0;				  
002B:  CLRF   4A
002C:  CLRF   4B
002D:  CLRF   4C
002E:  CLRF   4D
.................... 	int ID=0,hugou=0,i=0;  
002F:  CLRF   4E
0030:  CLRF   4F
0031:  CLRF   50
.................... 	int motasuu=0;  
0032:  CLRF   51
.................... 	  
.................... 	//初期化  
.................... 	set_tris_a(0x01);  
0033:  MOVLW  01
0034:  BSF    03.5
0035:  MOVWF  05
.................... 	set_tris_b(0x00);  
0036:  MOVLW  00
0037:  MOVWF  06
.................... 	set_tris_c(0x80);  
*
0028:  MOVLW  FF
0029:  MOVWF  20
*
0038:  MOVLW  80
0039:  MOVWF  07
003A:  BCF    03.5
003B:  MOVWF  20
.................... 	set_tris_d(0x00);  
003C:  MOVLW  00
003D:  BSF    03.5
003E:  MOVWF  08
.................... 	set_tris_e(0x00);  
003F:  BCF    09.0
0040:  BCF    09.1
0041:  BCF    09.2
.................... 	ADCON1 = 0b00000111;		//デジタルピン設定	  
0042:  MOVLW  07
0043:  MOVWF  1F
.................... 	//PWM初期化  
.................... 	setup_ccp1(CCP_PWM);  
0044:  BCF    03.5
0045:  BCF    20.2
0046:  MOVF   20,W
0047:  BSF    03.5
0048:  MOVWF  07
0049:  BCF    03.5
004A:  BCF    07.2
004B:  MOVLW  0C
004C:  MOVWF  17
.................... 	setup_ccp2(CCP_PWM);  
004D:  BCF    20.1
004E:  MOVF   20,W
004F:  BSF    03.5
0050:  MOVWF  07
0051:  BCF    03.5
0052:  BCF    07.1
0053:  MOVLW  0C
0054:  MOVWF  1D
.................... 	SETUP_TIMER_2(T2_DIV_BY_16,0xFF,1);  
0055:  MOVLW  00
0056:  MOVWF  78
0057:  IORLW  06
0058:  MOVWF  12
0059:  MOVLW  FF
005A:  BSF    03.5
005B:  MOVWF  12
.................... 	  
.................... 	//モーター初期化  
.................... 	/*  
.................... 	  
.................... 	//鉄火巻き初期化  
.................... 	set_pwm1_duty(0);  
.................... 	set_pwm2_duty(0);  
.................... 	output_low(TEKKA_Mortor1_IO_L);  
.................... 	output_low(TEKKA_Mortor1_IO_R);  
.................... 	output_low(TEKKA_Mortor2_IO_L);  
.................... 	output_low(TEKKA_Mortor2_IO_R);  
.................... 	*/  
.................... 	//かっぱ巻き初期化  
.................... 	output_low(KAPPA_Mortor1_IO_L);  
005C:  BCF    03.5
005D:  BCF    20.3
005E:  MOVF   20,W
005F:  BSF    03.5
0060:  MOVWF  07
0061:  BCF    03.5
0062:  BCF    07.3
.................... 	output_low(KAPPA_Mortor1_IO_R);  
0063:  BSF    03.5
0064:  BCF    08.0
0065:  BCF    03.5
0066:  BCF    08.0
.................... 	output_low(KAPPA_Mortor2_IO_L);  
0067:  BSF    03.5
0068:  BCF    08.3
0069:  BCF    03.5
006A:  BCF    08.3
.................... 	output_low(KAPPA_Mortor2_IO_R);  
006B:  BSF    03.5
006C:  BCF    08.2
006D:  BCF    03.5
006E:  BCF    08.2
.................... 	output_low(KAPPA_Mortor3_IO_L);  
006F:  BCF    20.5
0070:  MOVF   20,W
0071:  BSF    03.5
0072:  MOVWF  07
0073:  BCF    03.5
0074:  BCF    07.5
.................... 	output_low(KAPPA_Mortor3_IO_R);  
0075:  BCF    20.4
0076:  MOVF   20,W
0077:  BSF    03.5
0078:  MOVWF  07
0079:  BCF    03.5
007A:  BCF    07.4
.................... 	output_low(KAPPA_Mortor4_IO_L);  
007B:  BSF    03.5
007C:  BCF    05.0
007D:  BCF    03.5
007E:  BCF    05.0
.................... 	output_low(KAPPA_Mortor4_IO_R);  
007F:  BSF    03.5
0080:  BCF    08.1
0081:  BCF    03.5
0082:  BCF    08.1
.................... 	//かっぱ巻き2初期化  
.................... 	output_low(KAPPA2_Mortor1_IO_L);  
0083:  BSF    03.5
0084:  BCF    08.7
0085:  BCF    03.5
0086:  BCF    08.7
.................... 	output_low(KAPPA2_Mortor1_IO_R);  
0087:  BSF    03.5
0088:  BCF    08.6
0089:  BCF    03.5
008A:  BCF    08.6
.................... 	output_low(KAPPA2_Mortor2_IO_L);  
008B:  BSF    03.5
008C:  BCF    06.1
008D:  BCF    03.5
008E:  BCF    06.1
.................... 	output_low(KAPPA2_Mortor2_IO_R);  
008F:  BSF    03.5
0090:  BCF    06.0
0091:  BCF    03.5
0092:  BCF    06.0
.................... 	output_low(KAPPA2_Mortor3_IO_L);  
0093:  BSF    03.5
0094:  BCF    06.3
0095:  BCF    03.5
0096:  BCF    06.3
.................... 	output_low(KAPPA2_Mortor3_IO_R);  
0097:  BSF    03.5
0098:  BCF    06.2
0099:  BCF    03.5
009A:  BCF    06.2
.................... 	output_low(KAPPA2_Mortor4_IO_L);  
009B:  BSF    03.5
009C:  BCF    06.5
009D:  BCF    03.5
009E:  BCF    06.5
.................... 	output_low(KAPPA2_Mortor4_IO_R);  
009F:  BSF    03.5
00A0:  BCF    06.4
00A1:  BCF    03.5
00A2:  BCF    06.4
.................... 	  
.................... 	output_high(RUN_LED);   //動作確認  
00A3:  BCF    20.0
00A4:  MOVF   20,W
00A5:  BSF    03.5
00A6:  MOVWF  07
00A7:  BCF    03.5
00A8:  BSF    07.0
.................... 	delay_ms(500);  
00A9:  MOVLW  02
00AA:  MOVWF  52
00AB:  MOVLW  FA
00AC:  MOVWF  53
00AD:  CALL   004
00AE:  DECFSZ 52,F
00AF:  GOTO   0AB
.................... 	output_low(RUN_LED);   //動作確認  
00B0:  BCF    20.0
00B1:  MOVF   20,W
00B2:  BSF    03.5
00B3:  MOVWF  07
00B4:  BCF    03.5
00B5:  BCF    07.0
.................... 	delay_ms(500);  
00B6:  MOVLW  02
00B7:  MOVWF  52
00B8:  MOVLW  FA
00B9:  MOVWF  53
00BA:  CALL   004
00BB:  DECFSZ 52,F
00BC:  GOTO   0B8
.................... 	output_high(RUN_LED);   //動作確認  
00BD:  BCF    20.0
00BE:  MOVF   20,W
00BF:  BSF    03.5
00C0:  MOVWF  07
00C1:  BCF    03.5
00C2:  BSF    07.0
.................... 	delay_ms(500);  
00C3:  MOVLW  02
00C4:  MOVWF  52
00C5:  MOVLW  FA
00C6:  MOVWF  53
00C7:  CALL   004
00C8:  DECFSZ 52,F
00C9:  GOTO   0C5
.................... 	output_low(RUN_LED);   //動作確認  
00CA:  BCF    20.0
00CB:  MOVF   20,W
00CC:  BSF    03.5
00CD:  MOVWF  07
00CE:  BCF    03.5
00CF:  BCF    07.0
.................... 	delay_ms(500);  
00D0:  MOVLW  02
00D1:  MOVWF  52
00D2:  MOVLW  FA
00D3:  MOVWF  53
00D4:  CALL   004
00D5:  DECFSZ 52,F
00D6:  GOTO   0D2
.................... 	output_high(RUN_LED);   //動作確認  
00D7:  BCF    20.0
00D8:  MOVF   20,W
00D9:  BSF    03.5
00DA:  MOVWF  07
00DB:  BCF    03.5
00DC:  BSF    07.0
.................... //	output_high(TEKKA_LED);   //動作確認  
.................... 	output_high(KAPPA_LED1);   //動作確認  
00DD:  BSF    03.5
00DE:  BCF    08.5
00DF:  BCF    03.5
00E0:  BSF    08.5
.................... 	output_high(KAPPA_LED2);   //動作確認  
00E1:  BSF    03.5
00E2:  BCF    08.4
00E3:  BCF    03.5
00E4:  BSF    08.4
.................... 	output_high(KAPPA2_LED1);   //動作確認  
00E5:  BSF    03.5
00E6:  BCF    06.6
00E7:  BCF    03.5
00E8:  BSF    06.6
.................... 	output_high(KAPPA2_LED2);   //動作確認  
00E9:  BSF    03.5
00EA:  BCF    06.7
00EB:  BCF    03.5
00EC:  BSF    06.7
.................... 	//delay_ms(30);  
.................... 	while(1)  
.................... 	{  
.................... 		  
.................... 		//かっぱ１ポート１目  
.................... 		output_high(KAPPA_Mortor1_IO_R);  
00ED:  BSF    03.5
00EE:  BCF    08.0
00EF:  BCF    03.5
00F0:  BSF    08.0
.................... 		output_low(KAPPA_Mortor1_IO_L);  
00F1:  BCF    20.3
00F2:  MOVF   20,W
00F3:  BSF    03.5
00F4:  MOVWF  07
00F5:  BCF    03.5
00F6:  BCF    07.3
.................... 		  
.................... 		output_high(KAPPA_Mortor2_IO_R);  
00F7:  BSF    03.5
00F8:  BCF    08.2
00F9:  BCF    03.5
00FA:  BSF    08.2
.................... 		output_low(KAPPA_Mortor2_IO_L);  
00FB:  BSF    03.5
00FC:  BCF    08.3
00FD:  BCF    03.5
00FE:  BCF    08.3
.................... 		  
.................... 		  
.................... 		output_high(KAPPA_Mortor3_IO_R);  
00FF:  BCF    20.4
0100:  MOVF   20,W
0101:  BSF    03.5
0102:  MOVWF  07
0103:  BCF    03.5
0104:  BSF    07.4
.................... 		output_low(KAPPA_Mortor3_IO_L);  
0105:  BCF    20.5
0106:  MOVF   20,W
0107:  BSF    03.5
0108:  MOVWF  07
0109:  BCF    03.5
010A:  BCF    07.5
.................... 		  
.................... 		output_high(KAPPA_Mortor4_IO_R);  
010B:  BSF    03.5
010C:  BCF    08.1
010D:  BCF    03.5
010E:  BSF    08.1
.................... 		output_low(KAPPA_Mortor4_IO_L);  
010F:  BSF    03.5
0110:  BCF    05.0
0111:  BCF    03.5
0112:  BCF    05.0
.................... 		  
.................... 		//かっぱ２ポート２目  
.................... 		output_high(KAPPA2_Mortor1_IO_R);  
0113:  BSF    03.5
0114:  BCF    08.6
0115:  BCF    03.5
0116:  BSF    08.6
.................... 		output_low(KAPPA2_Mortor1_IO_L);  
0117:  BSF    03.5
0118:  BCF    08.7
0119:  BCF    03.5
011A:  BCF    08.7
.................... 		  
.................... 		output_high(KAPPA2_Mortor2_IO_R);  
011B:  BSF    03.5
011C:  BCF    06.0
011D:  BCF    03.5
011E:  BSF    06.0
.................... 		output_low(KAPPA2_Mortor2_IO_L);  
011F:  BSF    03.5
0120:  BCF    06.1
0121:  BCF    03.5
0122:  BCF    06.1
.................... 		  
.................... 		  
.................... 		output_high(KAPPA2_Mortor3_IO_R);  
0123:  BSF    03.5
0124:  BCF    06.2
0125:  BCF    03.5
0126:  BSF    06.2
.................... 		output_low(KAPPA2_Mortor3_IO_L);  
0127:  BSF    03.5
0128:  BCF    06.3
0129:  BCF    03.5
012A:  BCF    06.3
.................... 		  
.................... 		output_high(KAPPA2_Mortor4_IO_R);  
012B:  BSF    03.5
012C:  BCF    06.4
012D:  BCF    03.5
012E:  BSF    06.4
.................... 		output_low(KAPPA2_Mortor4_IO_L);  
012F:  BSF    03.5
0130:  BCF    06.5
0131:  BCF    03.5
0132:  BCF    06.5
.................... 		  
.................... 		  
.................... 	}  
0133:  GOTO   0ED
.................... 	  
.................... }  
....................  
0134:  SLEEP

Configuration Fuses:
   Word  1: 3F32   HS NOWDT PUT NODEBUG NOPROTECT NOBROWNOUT NOLVP NOCPD NOWRT
