CCS PCM C Compiler, Version 3.185, 22500

               Filename: C:\Users\FMV\Dropbox\PIC-project\PIC CCS\pwm\pic-ff.LST

               ROM used: 163 (2%)
                         Largest free fragment is 2048
               RAM used: 8 (5%) at main() level
                         9 (5%) worst case
               Stack:    1 locations

*
0000:  MOVLW  00
0001:  MOVWF  0A
0002:  GOTO   017
0003:  NOP
....................  #include <16F877A.h> 
....................  //////// Standard Header file for the PIC16F877A device ////////////////  
.................... #device PIC16F877A  
.................... #list  
....................  
.................... #fuses HS,NOWDT,NOPUT,NOPROTECT,BROWNOUT,NOLVP  
.................... #use delay(CLOCK=20000000)  
0004:  MOVLW  24
0005:  MOVWF  04
0006:  MOVF   00,W
0007:  BTFSC  03.2
0008:  GOTO   016
0009:  MOVLW  06
000A:  MOVWF  78
000B:  CLRF   77
000C:  DECFSZ 77,F
000D:  GOTO   00C
000E:  DECFSZ 78,F
000F:  GOTO   00B
0010:  MOVLW  7B
0011:  MOVWF  77
0012:  DECFSZ 77,F
0013:  GOTO   012
0014:  DECFSZ 00,F
0015:  GOTO   009
0016:  RETLW  00
....................   
.................... #byte port_a=5  
.................... #byte port_b=6  
.................... #byte port_c=7  
.................... #byte port_d=8  
.................... #byte port_e=9  
.................... #use fast_io(a)  
.................... #use fast_io(b)  
.................... #use fast_io(c)  
.................... #use fast_io(d)  
.................... #use fast_io(e)  
....................   
.................... int main()  
.................... {  
0017:  CLRF   04
0018:  MOVLW  1F
0019:  ANDWF  03,F
001A:  MOVLW  06
001B:  BSF    03.5
001C:  MOVWF  1F
001D:  MOVLW  07
001E:  BCF    03.5
001F:  MOVWF  1F
.................... 	  
.................... 	 long int a=0;  
0020:  CLRF   21
0021:  CLRF   22
.................... 	  
.................... 	set_tris_a(0);  
0022:  MOVLW  00
0023:  BSF    03.5
0024:  MOVWF  05
.................... 	set_tris_b(0xff);  
0025:  MOVLW  FF
0026:  MOVWF  06
.................... 	set_tris_c(0);  
0027:  MOVLW  00
0028:  MOVWF  07
.................... 	set_tris_d(0);  
0029:  MOVWF  08
.................... 	set_tris_e(0);  
002A:  BCF    09.0
002B:  BCF    09.1
002C:  BCF    09.2
.................... 	  
.................... 	  
.................... 	port_a = 0;  
002D:  BCF    03.5
002E:  CLRF   05
.................... 	port_b = 0;  
002F:  CLRF   06
.................... 	port_c = 0;  
0030:  CLRF   07
.................... 	port_d = 0;  
0031:  CLRF   08
.................... 	port_e = 0;  
0032:  CLRF   09
.................... 	  
.................... 	setup_ccp1(CCP_PWM);  
0033:  BCF    07.2
0034:  MOVLW  0C
0035:  MOVWF  17
.................... 	setup_ccp2(CCP_PWM);  
0036:  BCF    07.1
0037:  MOVWF  1D
.................... 	SETUP_TIMER_2(T2_DIV_BY_16,0xFF,1);  
0038:  MOVLW  00
0039:  MOVWF  78
003A:  IORLW  06
003B:  MOVWF  12
003C:  MOVLW  FF
003D:  BSF    03.5
003E:  MOVWF  12
.................... 	  
.................... 	while(1)  
.................... 	{  
.................... 		a=1000;  
003F:  MOVLW  03
0040:  BCF    03.5
0041:  MOVWF  22
0042:  MOVLW  E8
0043:  MOVWF  21
.................... 		set_pwm1_duty(a);  
0044:  MOVF   22,W
0045:  MOVWF  79
0046:  MOVF   21,W
0047:  MOVWF  78
0048:  RRF    79,F
0049:  RRF    78,F
004A:  RRF    79,F
004B:  RRF    78,F
004C:  RRF    79,F
004D:  MOVF   78,W
004E:  MOVWF  15
004F:  RRF    79,F
0050:  RRF    79,W
0051:  ANDLW  30
0052:  MOVWF  77
0053:  MOVF   17,W
0054:  ANDLW  CF
0055:  IORWF  77,W
0056:  MOVWF  17
.................... 		set_pwm2_duty(a);  
0057:  MOVF   22,W
0058:  MOVWF  79
0059:  MOVF   21,W
005A:  MOVWF  78
005B:  RRF    79,F
005C:  RRF    78,F
005D:  RRF    79,F
005E:  RRF    78,F
005F:  RRF    79,F
0060:  MOVF   78,W
0061:  MOVWF  1B
0062:  RRF    79,F
0063:  RRF    79,W
0064:  ANDLW  30
0065:  MOVWF  77
0066:  MOVF   1D,W
0067:  ANDLW  CF
0068:  IORWF  77,W
0069:  MOVWF  1D
.................... 		delay_ms(1000);  
006A:  MOVLW  04
006B:  MOVWF  23
006C:  MOVLW  FA
006D:  MOVWF  24
006E:  CALL   004
006F:  DECFSZ 23,F
0070:  GOTO   06C
.................... 		a=0;  
0071:  CLRF   22
0072:  CLRF   21
.................... 		set_pwm1_duty(a);  
0073:  MOVF   22,W
0074:  MOVWF  79
0075:  MOVF   21,W
0076:  MOVWF  78
0077:  RRF    79,F
0078:  RRF    78,F
0079:  RRF    79,F
007A:  RRF    78,F
007B:  RRF    79,F
007C:  MOVF   78,W
007D:  MOVWF  15
007E:  RRF    79,F
007F:  RRF    79,W
0080:  ANDLW  30
0081:  MOVWF  77
0082:  MOVF   17,W
0083:  ANDLW  CF
0084:  IORWF  77,W
0085:  MOVWF  17
.................... 		set_pwm2_duty(a);  
0086:  MOVF   22,W
0087:  MOVWF  79
0088:  MOVF   21,W
0089:  MOVWF  78
008A:  RRF    79,F
008B:  RRF    78,F
008C:  RRF    79,F
008D:  RRF    78,F
008E:  RRF    79,F
008F:  MOVF   78,W
0090:  MOVWF  1B
0091:  RRF    79,F
0092:  RRF    79,W
0093:  ANDLW  30
0094:  MOVWF  77
0095:  MOVF   1D,W
0096:  ANDLW  CF
0097:  IORWF  77,W
0098:  MOVWF  1D
.................... 		delay_ms(1000);  
0099:  MOVLW  04
009A:  MOVWF  23
009B:  MOVLW  FA
009C:  MOVWF  24
009D:  CALL   004
009E:  DECFSZ 23,F
009F:  GOTO   09B
.................... 		/*  
.................... 		  
.................... 		  
.................... 		if(input(PIN_B0) == 1){  
.................... 			set_pwm1_duty(50);  
.................... 			//output_high(PIN_D0);  
.................... 		}  
.................... 		  
.................... 		if(input(PIN_B1) == 1){  
.................... 			set_pwm1_duty(1000);  
.................... 			//output_low(PIN_D0);  
.................... 		}  
.................... 		  
.................... 		*/  
.................... 		  
.................... 		/*  
.................... 		output_high(PIN_D0);  
.................... 		delay_ms(500);  
.................... 		output_low(PIN_D0);  
.................... 		delay_ms(500);  
.................... 		*/  
.................... 	}  
00A0:  BSF    03.5
00A1:  GOTO   03F
.................... 	  
.................... }  
....................   
.................... 		 
00A2:  SLEEP

Configuration Fuses:
   Word  1: 3F7A   HS NOWDT NOPUT NODEBUG NOPROTECT BROWNOUT NOLVP NOCPD NOWRT
